target datalayout = "e-m:e-p270:32:32-p271:32:32-p272:64:64-i64:64-i128:128-f80:128-n8:16:32:64-S128"
target triple = "x86_64-pc-linux-gnu"

@proto_bfd = internal global i32 0, align 4
@.str = private unnamed_addr constant [26 x i8] c"MPLS-TP SOURCE MEP-ID TLV\00", align 1
@ett_bfd = internal global i32 0, align 4
@hf_mep_type = internal global i32 0, align 4
@hf_mep_len = internal global i32 0, align 4
@hf_mep_global_id = internal global i32 0, align 4
@hf_mep_node_id = internal global i32 0, align 4
@hf_section_interface_no = internal global i32 0, align 4
@hf_mep_tunnel_no = internal global i32 0, align 4
@hf_mep_lsp_no = internal global i32 0, align 4
@hf_mep_ac_id = internal global i32 0, align 4
@hf_mep_agi_type = internal global i32 0, align 4
@hf_mep_agi_len = internal global i32 0, align 4
@hf_mep_agi_val = internal global i32 0, align 4

; Function Attrs: null_pointer_is_valid sspstrong uwtable
define hidden void @dissect_bfd_mep(ptr noundef %0, ptr noundef %1, i32 noundef %2) #0 {
  %4 = alloca ptr, align 8
  %5 = alloca ptr, align 8
  %6 = alloca i32, align 4
  %7 = alloca ptr, align 8
  %8 = alloca ptr, align 8
  %9 = alloca i32, align 4
  %10 = alloca i32, align 4
  %11 = alloca i32, align 4
  %12 = alloca i32, align 4
  %13 = alloca i32, align 4
  store ptr %0, ptr %4, align 8
  store ptr %1, ptr %5, align 8
  store i32 %2, ptr %6, align 4
  call void @llvm.lifetime.start.p0(i64 8, ptr %7) #4
  call void @llvm.lifetime.start.p0(i64 8, ptr %8) #4
  call void @llvm.lifetime.start.p0(i64 4, ptr %9) #4
  store i32 0, ptr %9, align 4
  call void @llvm.lifetime.start.p0(i64 4, ptr %10) #4
  call void @llvm.lifetime.start.p0(i64 4, ptr %11) #4
  call void @llvm.lifetime.start.p0(i64 4, ptr %12) #4
  %14 = load ptr, ptr %5, align 8
  %15 = icmp ne ptr %14, null
  br i1 %15, label %17, label %16

16:                                               ; preds = %3
  store i32 1, ptr %13, align 4
  br label %197

17:                                               ; preds = %3
  %18 = load i32, ptr %6, align 4
  %19 = icmp ne i32 %18, 0
  br i1 %19, label %40, label %20

20:                                               ; preds = %17
  %21 = load ptr, ptr %4, align 8
  %22 = call zeroext i8 @tvb_get_uint8(ptr noundef %21, i32 noundef 3)
  %23 = zext i8 %22 to i32
  store i32 %23, ptr %9, align 4
  %24 = load ptr, ptr %4, align 8
  %25 = load i32, ptr %9, align 4
  %26 = call zeroext i16 @tvb_get_ntohs(ptr noundef %24, i32 noundef %25)
  %27 = zext i16 %26 to i32
  store i32 %27, ptr %10, align 4
  %28 = load ptr, ptr %4, align 8
  %29 = load i32, ptr %9, align 4
  %30 = add i32 %29, 2
  %31 = call zeroext i16 @tvb_get_ntohs(ptr noundef %28, i32 noundef %30)
  %32 = zext i16 %31 to i32
  store i32 %32, ptr %11, align 4
  %33 = load ptr, ptr %5, align 8
  %34 = load i32, ptr @proto_bfd, align 4
  %35 = load ptr, ptr %4, align 8
  %36 = load i32, ptr %9, align 4
  %37 = load i32, ptr %11, align 4
  %38 = add i32 %37, 4
  %39 = call ptr (ptr, i32, ptr, i32, i32, ptr, ...) @proto_tree_add_protocol_format(ptr noundef %33, i32 noundef %34, ptr noundef %35, i32 noundef %36, i32 noundef %38, ptr noundef @.str)
  store ptr %39, ptr %7, align 8
  br label %57

40:                                               ; preds = %17
  %41 = load ptr, ptr %4, align 8
  %42 = load i32, ptr %9, align 4
  %43 = call zeroext i16 @tvb_get_ntohs(ptr noundef %41, i32 noundef %42)
  %44 = zext i16 %43 to i32
  store i32 %44, ptr %10, align 4
  %45 = load ptr, ptr %4, align 8
  %46 = load i32, ptr %9, align 4
  %47 = add i32 %46, 2
  %48 = call zeroext i16 @tvb_get_ntohs(ptr noundef %45, i32 noundef %47)
  %49 = zext i16 %48 to i32
  store i32 %49, ptr %11, align 4
  %50 = load ptr, ptr %5, align 8
  %51 = load i32, ptr %6, align 4
  %52 = load ptr, ptr %4, align 8
  %53 = load i32, ptr %9, align 4
  %54 = load i32, ptr %11, align 4
  %55 = add i32 %54, 4
  %56 = call ptr (ptr, i32, ptr, i32, i32, ptr, ...) @proto_tree_add_protocol_format(ptr noundef %50, i32 noundef %51, ptr noundef %52, i32 noundef %53, i32 noundef %55, ptr noundef @.str)
  store ptr %56, ptr %7, align 8
  br label %57

57:                                               ; preds = %40, %20
  %58 = load i32, ptr %10, align 4
  switch i32 %58, label %195 [
    i32 0, label %59
    i32 1, label %94
    i32 2, label %135
  ]

59:                                               ; preds = %57
  %60 = load ptr, ptr %7, align 8
  %61 = load i32, ptr @ett_bfd, align 4
  %62 = call ptr @proto_item_add_subtree(ptr noundef %60, i32 noundef %61)
  store ptr %62, ptr %8, align 8
  %63 = load ptr, ptr %8, align 8
  %64 = load i32, ptr @hf_mep_type, align 4
  %65 = load ptr, ptr %4, align 8
  %66 = load i32, ptr %9, align 4
  %67 = load i32, ptr %10, align 4
  %68 = call ptr @proto_tree_add_uint(ptr noundef %63, i32 noundef %64, ptr noundef %65, i32 noundef %66, i32 noundef 2, i32 noundef %67)
  %69 = load ptr, ptr %8, align 8
  %70 = load i32, ptr @hf_mep_len, align 4
  %71 = load ptr, ptr %4, align 8
  %72 = load i32, ptr %9, align 4
  %73 = add i32 %72, 2
  %74 = load i32, ptr %11, align 4
  %75 = call ptr @proto_tree_add_uint(ptr noundef %69, i32 noundef %70, ptr noundef %71, i32 noundef %73, i32 noundef 2, i32 noundef %74)
  %76 = load ptr, ptr %8, align 8
  %77 = load i32, ptr @hf_mep_global_id, align 4
  %78 = load ptr, ptr %4, align 8
  %79 = load i32, ptr %9, align 4
  %80 = add i32 %79, 4
  %81 = call ptr @proto_tree_add_item(ptr noundef %76, i32 noundef %77, ptr noundef %78, i32 noundef %80, i32 noundef 4, i32 noundef 0)
  %82 = load ptr, ptr %8, align 8
  %83 = load i32, ptr @hf_mep_node_id, align 4
  %84 = load ptr, ptr %4, align 8
  %85 = load i32, ptr %9, align 4
  %86 = add i32 %85, 8
  %87 = call ptr @proto_tree_add_item(ptr noundef %82, i32 noundef %83, ptr noundef %84, i32 noundef %86, i32 noundef 4, i32 noundef 0)
  %88 = load ptr, ptr %8, align 8
  %89 = load i32, ptr @hf_section_interface_no, align 4
  %90 = load ptr, ptr %4, align 8
  %91 = load i32, ptr %9, align 4
  %92 = add i32 %91, 12
  %93 = call ptr @proto_tree_add_item(ptr noundef %88, i32 noundef %89, ptr noundef %90, i32 noundef %92, i32 noundef 4, i32 noundef 0)
  br label %196

94:                                               ; preds = %57
  %95 = load ptr, ptr %7, align 8
  %96 = load i32, ptr @ett_bfd, align 4
  %97 = call ptr @proto_item_add_subtree(ptr noundef %95, i32 noundef %96)
  store ptr %97, ptr %8, align 8
  %98 = load ptr, ptr %8, align 8
  %99 = load i32, ptr @hf_mep_type, align 4
  %100 = load ptr, ptr %4, align 8
  %101 = load i32, ptr %9, align 4
  %102 = load i32, ptr %10, align 4
  %103 = call ptr @proto_tree_add_uint(ptr noundef %98, i32 noundef %99, ptr noundef %100, i32 noundef %101, i32 noundef 2, i32 noundef %102)
  %104 = load ptr, ptr %8, align 8
  %105 = load i32, ptr @hf_mep_len, align 4
  %106 = load ptr, ptr %4, align 8
  %107 = load i32, ptr %9, align 4
  %108 = add i32 %107, 2
  %109 = load i32, ptr %11, align 4
  %110 = call ptr @proto_tree_add_uint(ptr noundef %104, i32 noundef %105, ptr noundef %106, i32 noundef %108, i32 noundef 2, i32 noundef %109)
  %111 = load ptr, ptr %8, align 8
  %112 = load i32, ptr @hf_mep_global_id, align 4
  %113 = load ptr, ptr %4, align 8
  %114 = load i32, ptr %9, align 4
  %115 = add i32 %114, 4
  %116 = call ptr @proto_tree_add_item(ptr noundef %111, i32 noundef %112, ptr noundef %113, i32 noundef %115, i32 noundef 4, i32 noundef 0)
  %117 = load ptr, ptr %8, align 8
  %118 = load i32, ptr @hf_mep_node_id, align 4
  %119 = load ptr, ptr %4, align 8
  %120 = load i32, ptr %9, align 4
  %121 = add i32 %120, 8
  %122 = call ptr @proto_tree_add_item(ptr noundef %117, i32 noundef %118, ptr noundef %119, i32 noundef %121, i32 noundef 4, i32 noundef 0)
  %123 = load ptr, ptr %8, align 8
  %124 = load i32, ptr @hf_mep_tunnel_no, align 4
  %125 = load ptr, ptr %4, align 8
  %126 = load i32, ptr %9, align 4
  %127 = add i32 %126, 12
  %128 = call ptr @proto_tree_add_item(ptr noundef %123, i32 noundef %124, ptr noundef %125, i32 noundef %127, i32 noundef 2, i32 noundef 0)
  %129 = load ptr, ptr %8, align 8
  %130 = load i32, ptr @hf_mep_lsp_no, align 4
  %131 = load ptr, ptr %4, align 8
  %132 = load i32, ptr %9, align 4
  %133 = add i32 %132, 14
  %134 = call ptr @proto_tree_add_item(ptr noundef %129, i32 noundef %130, ptr noundef %131, i32 noundef %133, i32 noundef 2, i32 noundef 0)
  br label %196

135:                                              ; preds = %57
  %136 = load ptr, ptr %4, align 8
  %137 = load i32, ptr %9, align 4
  %138 = add i32 %137, 17
  %139 = call zeroext i8 @tvb_get_uint8(ptr noundef %136, i32 noundef %138)
  %140 = zext i8 %139 to i32
  store i32 %140, ptr %12, align 4
  %141 = load ptr, ptr %7, align 8
  %142 = load i32, ptr @ett_bfd, align 4
  %143 = call ptr @proto_item_add_subtree(ptr noundef %141, i32 noundef %142)
  store ptr %143, ptr %8, align 8
  %144 = load ptr, ptr %8, align 8
  %145 = load i32, ptr @hf_mep_type, align 4
  %146 = load ptr, ptr %4, align 8
  %147 = load i32, ptr %9, align 4
  %148 = load i32, ptr %10, align 4
  %149 = call ptr @proto_tree_add_uint(ptr noundef %144, i32 noundef %145, ptr noundef %146, i32 noundef %147, i32 noundef 2, i32 noundef %148)
  %150 = load ptr, ptr %8, align 8
  %151 = load i32, ptr @hf_mep_len, align 4
  %152 = load ptr, ptr %4, align 8
  %153 = load i32, ptr %9, align 4
  %154 = add i32 %153, 2
  %155 = load i32, ptr %11, align 4
  %156 = call ptr @proto_tree_add_uint(ptr noundef %150, i32 noundef %151, ptr noundef %152, i32 noundef %154, i32 noundef 2, i32 noundef %155)
  %157 = load ptr, ptr %8, align 8
  %158 = load i32, ptr @hf_mep_global_id, align 4
  %159 = load ptr, ptr %4, align 8
  %160 = load i32, ptr %9, align 4
  %161 = add i32 %160, 4
  %162 = call ptr @proto_tree_add_item(ptr noundef %157, i32 noundef %158, ptr noundef %159, i32 noundef %161, i32 noundef 4, i32 noundef 0)
  %163 = load ptr, ptr %8, align 8
  %164 = load i32, ptr @hf_mep_node_id, align 4
  %165 = load ptr, ptr %4, align 8
  %166 = load i32, ptr %9, align 4
  %167 = add i32 %166, 8
  %168 = call ptr @proto_tree_add_item(ptr noundef %163, i32 noundef %164, ptr noundef %165, i32 noundef %167, i32 noundef 4, i32 noundef 0)
  %169 = load ptr, ptr %8, align 8
  %170 = load i32, ptr @hf_mep_ac_id, align 4
  %171 = load ptr, ptr %4, align 8
  %172 = load i32, ptr %9, align 4
  %173 = add i32 %172, 12
  %174 = call ptr @proto_tree_add_item(ptr noundef %169, i32 noundef %170, ptr noundef %171, i32 noundef %173, i32 noundef 4, i32 noundef 0)
  %175 = load ptr, ptr %8, align 8
  %176 = load i32, ptr @hf_mep_agi_type, align 4
  %177 = load ptr, ptr %4, align 8
  %178 = load i32, ptr %9, align 4
  %179 = add i32 %178, 16
  %180 = call ptr @proto_tree_add_item(ptr noundef %175, i32 noundef %176, ptr noundef %177, i32 noundef %179, i32 noundef 1, i32 noundef 0)
  %181 = load ptr, ptr %8, align 8
  %182 = load i32, ptr @hf_mep_agi_len, align 4
  %183 = load ptr, ptr %4, align 8
  %184 = load i32, ptr %9, align 4
  %185 = add i32 %184, 17
  %186 = load i32, ptr %12, align 4
  %187 = call ptr @proto_tree_add_uint(ptr noundef %181, i32 noundef %182, ptr noundef %183, i32 noundef %185, i32 noundef 1, i32 noundef %186)
  %188 = load ptr, ptr %8, align 8
  %189 = load i32, ptr @hf_mep_agi_val, align 4
  %190 = load ptr, ptr %4, align 8
  %191 = load i32, ptr %9, align 4
  %192 = add i32 %191, 18
  %193 = load i32, ptr %12, align 4
  %194 = call ptr @proto_tree_add_item(ptr noundef %188, i32 noundef %189, ptr noundef %190, i32 noundef %192, i32 noundef %193, i32 noundef 0)
  br label %196

195:                                              ; preds = %57
  br label %196

196:                                              ; preds = %195, %135, %94, %59
  store i32 1, ptr %13, align 4
  br label %197

197:                                              ; preds = %196, %16
  call void @llvm.lifetime.end.p0(i64 4, ptr %12) #4
  call void @llvm.lifetime.end.p0(i64 4, ptr %11) #4
  call void @llvm.lifetime.end.p0(i64 4, ptr %10) #4
  call void @llvm.lifetime.end.p0(i64 4, ptr %9) #4
  call void @llvm.lifetime.end.p0(i64 8, ptr %8) #4
  call void @llvm.lifetime.end.p0(i64 8, ptr %7) #4
  ret void
}