; Function Attrs: null_pointer_is_valid sspstrong uwtable
define hidden void @dissect_bfd_mep(ptr noundef %0, ptr noundef %1, i32 noundef %2) local_unnamed_addr #0 {
  %.not = icmp eq ptr %1, null
  br i1 %.not, label %87, label %4

4:                                                ; preds = %3
  %.not95 = icmp eq i32 %2, 0
  br i1 %.not95, label %5, label %15

5:                                                ; preds = %4
  %6 = tail call zeroext i8 @tvb_get_uint8(ptr noundef %0, i32 noundef 3)
  %7 = zext i8 %6 to i32
  %8 = tail call zeroext i16 @tvb_get_ntohs(ptr noundef %0, i32 noundef %7)
  %9 = add nuw nsw i32 %7, 2
  %10 = tail call zeroext i16 @tvb_get_ntohs(ptr noundef %0, i32 noundef %9)
  %11 = zext i16 %10 to i32
  %12 = load i32, ptr @proto_bfd, align 4
  %13 = add nuw nsw i32 %11, 4
  %14 = tail call ptr (ptr, i32, ptr, i32, i32, ptr, ...) @proto_tree_add_protocol_format(ptr noundef nonnull %1, i32 noundef %12, ptr noundef %0, i32 noundef %7, i32 noundef %13, ptr noundef nonnull @.str)
  br label %21

15:                                               ; preds = %4
  %16 = tail call zeroext i16 @tvb_get_ntohs(ptr noundef %0, i32 noundef 0)
  %17 = tail call zeroext i16 @tvb_get_ntohs(ptr noundef %0, i32 noundef 2)
  %18 = zext i16 %17 to i32
  %19 = add nuw nsw i32 %18, 4
  %20 = tail call ptr (ptr, i32, ptr, i32, i32, ptr, ...) @proto_tree_add_protocol_format(ptr noundef nonnull %1, i32 noundef %2, ptr noundef %0, i32 noundef 0, i32 noundef %19, ptr noundef nonnull @.str)
  br label %21

21:                                               ; preds = %15, %5
  %.092 = phi i32 [ 0, %15 ], [ %7, %5 ]
  %.091.in = phi i16 [ %16, %15 ], [ %8, %5 ]
  %.090 = phi i32 [ %18, %15 ], [ %11, %5 ]
  %.0 = phi ptr [ %20, %15 ], [ %14, %5 ]
  switch i16 %.091.in, label %87 [
    i16 0, label %22
    i16 1, label %39
    i16 2, label %59
  ]

22:                                               ; preds = %21
  %23 = load i32, ptr @ett_bfd, align 4
  %24 = tail call ptr @proto_item_add_subtree(ptr noundef %.0, i32 noundef %23)
  %25 = load i32, ptr @hf_mep_type, align 4
  %26 = tail call ptr @proto_tree_add_uint(ptr noundef %24, i32 noundef %25, ptr noundef %0, i32 noundef %.092, i32 noundef 2, i32 noundef 0)
  %27 = load i32, ptr @hf_mep_len, align 4
  %28 = add nuw nsw i32 %.092, 2
  %29 = tail call ptr @proto_tree_add_uint(ptr noundef %24, i32 noundef %27, ptr noundef %0, i32 noundef %28, i32 noundef 2, i32 noundef %.090)
  %30 = load i32, ptr @hf_mep_global_id, align 4
  %31 = add nuw nsw i32 %.092, 4
  %32 = tail call ptr @proto_tree_add_item(ptr noundef %24, i32 noundef %30, ptr noundef %0, i32 noundef %31, i32 noundef 4, i32 noundef 0)
  %33 = load i32, ptr @hf_mep_node_id, align 4
  %34 = add nuw nsw i32 %.092, 8
  %35 = tail call ptr @proto_tree_add_item(ptr noundef %24, i32 noundef %33, ptr noundef %0, i32 noundef %34, i32 noundef 4, i32 noundef 0)
  %36 = load i32, ptr @hf_section_interface_no, align 4
  %37 = add nuw nsw i32 %.092, 12
  %38 = tail call ptr @proto_tree_add_item(ptr noundef %24, i32 noundef %36, ptr noundef %0, i32 noundef %37, i32 noundef 4, i32 noundef 0)
  br label %87

39:                                               ; preds = %21
  %40 = load i32, ptr @ett_bfd, align 4
  %41 = tail call ptr @proto_item_add_subtree(ptr noundef %.0, i32 noundef %40)
  %42 = load i32, ptr @hf_mep_type, align 4
  %43 = tail call ptr @proto_tree_add_uint(ptr noundef %41, i32 noundef %42, ptr noundef %0, i32 noundef %.092, i32 noundef 2, i32 noundef 1)
  %44 = load i32, ptr @hf_mep_len, align 4
  %45 = add nuw nsw i32 %.092, 2
  %46 = tail call ptr @proto_tree_add_uint(ptr noundef %41, i32 noundef %44, ptr noundef %0, i32 noundef %45, i32 noundef 2, i32 noundef %.090)
  %47 = load i32, ptr @hf_mep_global_id, align 4
  %48 = add nuw nsw i32 %.092, 4
  %49 = tail call ptr @proto_tree_add_item(ptr noundef %41, i32 noundef %47, ptr noundef %0, i32 noundef %48, i32 noundef 4, i32 noundef 0)
  %50 = load i32, ptr @hf_mep_node_id, align 4
  %51 = add nuw nsw i32 %.092, 8
  %52 = tail call ptr @proto_tree_add_item(ptr noundef %41, i32 noundef %50, ptr noundef %0, i32 noundef %51, i32 noundef 4, i32 noundef 0)
  %53 = load i32, ptr @hf_mep_tunnel_no, align 4
  %54 = add nuw nsw i32 %.092, 12
  %55 = tail call ptr @proto_tree_add_item(ptr noundef %41, i32 noundef %53, ptr noundef %0, i32 noundef %54, i32 noundef 2, i32 noundef 0)
  %56 = load i32, ptr @hf_mep_lsp_no, align 4
  %57 = add nuw nsw i32 %.092, 14
  %58 = tail call ptr @proto_tree_add_item(ptr noundef %41, i32 noundef %56, ptr noundef %0, i32 noundef %57, i32 noundef 2, i32 noundef 0)
  br label %87

59:                                               ; preds = %21
  %60 = add nuw nsw i32 %.092, 17
  %61 = tail call zeroext i8 @tvb_get_uint8(ptr noundef %0, i32 noundef %60)
  %62 = zext i8 %61 to i32
  %63 = load i32, ptr @ett_bfd, align 4
  %64 = tail call ptr @proto_item_add_subtree(ptr noundef %.0, i32 noundef %63)
  %65 = load i32, ptr @hf_mep_type, align 4
  %66 = tail call ptr @proto_tree_add_uint(ptr noundef %64, i32 noundef %65, ptr noundef %0, i32 noundef %.092, i32 noundef 2, i32 noundef 2)
  %67 = load i32, ptr @hf_mep_len, align 4
  %68 = add nuw nsw i32 %.092, 2
  %69 = tail call ptr @proto_tree_add_uint(ptr noundef %64, i32 noundef %67, ptr noundef %0, i32 noundef %68, i32 noundef 2, i32 noundef %.090)
  %70 = load i32, ptr @hf_mep_global_id, align 4
  %71 = add nuw nsw i32 %.092, 4
  %72 = tail call ptr @proto_tree_add_item(ptr noundef %64, i32 noundef %70, ptr noundef %0, i32 noundef %71, i32 noundef 4, i32 noundef 0)
  %73 = load i32, ptr @hf_mep_node_id, align 4
  %74 = add nuw nsw i32 %.092, 8
  %75 = tail call ptr @proto_tree_add_item(ptr noundef %64, i32 noundef %73, ptr noundef %0, i32 noundef %74, i32 noundef 4, i32 noundef 0)
  %76 = load i32, ptr @hf_mep_ac_id, align 4
  %77 = add nuw nsw i32 %.092, 12
  %78 = tail call ptr @proto_tree_add_item(ptr noundef %64, i32 noundef %76, ptr noundef %0, i32 noundef %77, i32 noundef 4, i32 noundef 0)
  %79 = load i32, ptr @hf_mep_agi_type, align 4
  %80 = add nuw nsw i32 %.092, 16
  %81 = tail call ptr @proto_tree_add_item(ptr noundef %64, i32 noundef %79, ptr noundef %0, i32 noundef %80, i32 noundef 1, i32 noundef 0)
  %82 = load i32, ptr @hf_mep_agi_len, align 4
  %83 = tail call ptr @proto_tree_add_uint(ptr noundef %64, i32 noundef %82, ptr noundef %0, i32 noundef %60, i32 noundef 1, i32 noundef %62)
  %84 = load i32, ptr @hf_mep_agi_val, align 4
  %85 = add nuw nsw i32 %.092, 18
  %86 = tail call ptr @proto_tree_add_item(ptr noundef %64, i32 noundef %84, ptr noundef %0, i32 noundef %85, i32 noundef %62, i32 noundef 0)
  br label %87

87:                                               ; preds = %22, %39, %59, %21, %3
  ret void
}